; ModuleID = '25/579.c'
source_filename = "25/579.c"
target datalayout = "e-m:e-p270:32:32-p271:32:32-p272:64:64-i64:64-f80:128-n8:16:32:64-S128"
target triple = "x86_64-pc-linux-gnu"

@.str = private unnamed_addr constant [3 x i8] c"%d\00", align 1
@.str.1 = private unnamed_addr constant [2 x i8] c"1\00", align 1
@.str.2 = private unnamed_addr constant [2 x i8] c"\0A\00", align 1

; Function Attrs: noinline nounwind uwtable
define dso_local i32 @main() #0 {
  %1 = alloca i32, align 4
  %2 = alloca i32, align 4
  %3 = alloca i32, align 4
  %4 = alloca i32, align 4
  %5 = alloca i32, align 4
  %6 = alloca i32, align 4
  %7 = alloca [100 x i32], align 16
  %8 = alloca [100 x i32], align 16
  %9 = alloca i32, align 4
  %10 = alloca i32, align 4
  store i32 0, i32* %1, align 4
  store i32 1, i32* %6, align 4
  %11 = bitcast [100 x i32]* %7 to i8*
  call void @llvm.memset.p0i8.i64(i8* align 16 %11, i8 0, i64 400, i1 false)
  %12 = bitcast [100 x i32]* %8 to i8*
  call void @llvm.memset.p0i8.i64(i8* align 16 %12, i8 0, i64 400, i1 false)
  %13 = getelementptr inbounds [100 x i32], [100 x i32]* %7, i64 0, i64 0
  store i32 2, i32* %13, align 16
  %14 = call i32 (i8*, ...) @__isoc99_scanf(i8* getelementptr inbounds ([3 x i8], [3 x i8]* @.str, i64 0, i64 0), i32* %2)
  store i32 0, i32* %9, align 4
  store i32 0, i32* %3, align 4
  br label %15

15:                                               ; preds = %71, %0
  %16 = load i32, i32* %3, align 4
  %17 = load i32, i32* %2, align 4
  %18 = sub nsw i32 %17, 1
  %19 = icmp slt i32 %16, %18
  br i1 %19, label %20, label %74

20:                                               ; preds = %15
  store i32 0, i32* %5, align 4
  br label %21

21:                                               ; preds = %52, %20
  %22 = load i32, i32* %5, align 4
  %23 = icmp slt i32 %22, 100
  br i1 %23, label %24, label %55

24:                                               ; preds = %21
  %25 = load i32, i32* %5, align 4
  %26 = sext i32 %25 to i64
  %27 = getelementptr inbounds [100 x i32], [100 x i32]* %7, i64 0, i64 %26
  %28 = load i32, i32* %27, align 4
  %29 = load i32, i32* %5, align 4
  %30 = sext i32 %29 to i64
  %31 = getelementptr inbounds [100 x i32], [100 x i32]* %7, i64 0, i64 %30
  %32 = load i32, i32* %31, align 4
  %33 = add nsw i32 %28, %32
  %34 = load i32, i32* %9, align 4
  %35 = add nsw i32 %33, %34
  %36 = load i32, i32* %5, align 4
  %37 = sext i32 %36 to i64
  %38 = getelementptr inbounds [100 x i32], [100 x i32]* %8, i64 0, i64 %37
  store i32 %35, i32* %38, align 4
  %39 = load i32, i32* %5, align 4
  %40 = sext i32 %39 to i64
  %41 = getelementptr inbounds [100 x i32], [100 x i32]* %8, i64 0, i64 %40
  %42 = load i32, i32* %41, align 4
  %43 = icmp sge i32 %42, 10
  br i1 %43, label %44, label %50

44:                                               ; preds = %24
  %45 = load i32, i32* %5, align 4
  %46 = sext i32 %45 to i64
  %47 = getelementptr inbounds [100 x i32], [100 x i32]* %8, i64 0, i64 %46
  %48 = load i32, i32* %47, align 4
  %49 = sub nsw i32 %48, 10
  store i32 %49, i32* %47, align 4
  store i32 1, i32* %9, align 4
  br label %51

50:                                               ; preds = %24
  store i32 0, i32* %9, align 4
  br label %51

51:                                               ; preds = %50, %44
  br label %52

52:                                               ; preds = %51
  %53 = load i32, i32* %5, align 4
  %54 = add nsw i32 %53, 1
  store i32 %54, i32* %5, align 4
  br label %21

55:                                               ; preds = %21
  store i32 0, i32* %4, align 4
  br label %56

56:                                               ; preds = %67, %55
  %57 = load i32, i32* %4, align 4
  %58 = icmp slt i32 %57, 100
  br i1 %58, label %59, label %70

59:                                               ; preds = %56
  %60 = load i32, i32* %4, align 4
  %61 = sext i32 %60 to i64
  %62 = getelementptr inbounds [100 x i32], [100 x i32]* %8, i64 0, i64 %61
  %63 = load i32, i32* %62, align 4
  %64 = load i32, i32* %4, align 4
  %65 = sext i32 %64 to i64
  %66 = getelementptr inbounds [100 x i32], [100 x i32]* %7, i64 0, i64 %65
  store i32 %63, i32* %66, align 4
  br label %67

67:                                               ; preds = %59
  %68 = load i32, i32* %4, align 4
  %69 = add nsw i32 %68, 1
  store i32 %69, i32* %4, align 4
  br label %56

70:                                               ; preds = %56
  br label %71

71:                                               ; preds = %70
  %72 = load i32, i32* %3, align 4
  %73 = add nsw i32 %72, 1
  store i32 %73, i32* %3, align 4
  br label %15

74:                                               ; preds = %15
  store i32 99, i32* %10, align 4
  br label %75

75:                                               ; preds = %81, %74
  %76 = load i32, i32* %10, align 4
  %77 = sext i32 %76 to i64
  %78 = getelementptr inbounds [100 x i32], [100 x i32]* %7, i64 0, i64 %77
  %79 = load i32, i32* %78, align 4
  %80 = icmp eq i32 %79, 0
  br i1 %80, label %81, label %84

81:                                               ; preds = %75
  %82 = load i32, i32* %10, align 4
  %83 = add nsw i32 %82, -1
  store i32 %83, i32* %10, align 4
  br label %75

84:                                               ; preds = %75
  %85 = load i32, i32* %2, align 4
  %86 = icmp ne i32 %85, 0
  br i1 %86, label %87, label %102

87:                                               ; preds = %84
  %88 = load i32, i32* %10, align 4
  store i32 %88, i32* %3, align 4
  br label %89

89:                                               ; preds = %98, %87
  %90 = load i32, i32* %3, align 4
  %91 = icmp sge i32 %90, 0
  br i1 %91, label %92, label %101

92:                                               ; preds = %89
  %93 = load i32, i32* %3, align 4
  %94 = sext i32 %93 to i64
  %95 = getelementptr inbounds [100 x i32], [100 x i32]* %7, i64 0, i64 %94
  %96 = load i32, i32* %95, align 4
  %97 = call i32 (i8*, ...) @printf(i8* getelementptr inbounds ([3 x i8], [3 x i8]* @.str, i64 0, i64 0), i32 %96)
  br label %98

98:                                               ; preds = %92
  %99 = load i32, i32* %3, align 4
  %100 = add nsw i32 %99, -1
  store i32 %100, i32* %3, align 4
  br label %89

101:                                              ; preds = %89
  br label %104

102:                                              ; preds = %84
  %103 = call i32 (i8*, ...) @printf(i8* getelementptr inbounds ([2 x i8], [2 x i8]* @.str.1, i64 0, i64 0))
  br label %104

104:                                              ; preds = %102, %101
  %105 = call i32 (i8*, ...) @printf(i8* getelementptr inbounds ([2 x i8], [2 x i8]* @.str.2, i64 0, i64 0))
  ret i32 0
}

; Function Attrs: argmemonly nounwind willreturn
declare void @llvm.memset.p0i8.i64(i8* nocapture writeonly, i8, i64, i1 immarg) #1

declare dso_local i32 @__isoc99_scanf(i8*, ...) #2

declare dso_local i32 @printf(i8*, ...) #2


!llvm.module.flags = !{!0}
!llvm.ident = !{!1}

!0 = !{i32 1, !"wchar_size", i32 4}
!1 = !{!"clang version 10.0.0-4ubuntu1 "}
